target datalayout = "e-m:e-p270:32:32-p271:32:32-p272:64:64-i64:64-i128:128-f80:128-n8:16:32:64-S128"
target triple = "x86_64-pc-linux-gnu"

%struct.SDF_Shape_ = type { ptr, ptr }
%struct.SDF_Raster_Params_ = type { %struct.FT_Raster_Params_, i32, i8, i8, i8 }
%struct.FT_Raster_Params_ = type { ptr, ptr, i32, ptr, ptr, ptr, ptr, ptr, %struct.FT_BBox_ }
%struct.FT_BBox_ = type { i64, i64, i64, i64 }
%struct.FT_Outline_ = type { i16, i16, ptr, ptr, ptr, i32 }
%struct.SDF_TRaster_ = type { ptr }
%struct.SDF_Params_ = type { i32, i8, i8, i32 }

@null_shape = internal constant %struct.SDF_Shape_ zeroinitializer, align 8
@sdf_decompose_funcs = internal constant { ptr, ptr, ptr, ptr, i32, [4 x i8], i64 } { ptr @sdf_move_to, ptr @sdf_line_to, ptr @sdf_conic_to, ptr @sdf_cubic_to, i32 0, [4 x i8] zeroinitializer, i64 0 }, align 8

; Function Attrs: nounwind uwtable
define internal i32 @sdf_outline_decompose(ptr noundef %0, ptr noundef %1) #0 {
  %3 = alloca ptr, align 8
  %4 = alloca ptr, align 8
  %5 = alloca i32, align 4
  store ptr %0, ptr %3, align 8, !tbaa !34
  store ptr %1, ptr %4, align 8, !tbaa !121
  call void @llvm.lifetime.start.p0(i64 4, ptr %5) #7
  store i32 0, ptr %5, align 4, !tbaa !31
  %6 = load ptr, ptr %3, align 8, !tbaa !34
  %7 = icmp ne ptr %6, null
  br i1 %7, label %8, label %11

8:                                                ; preds = %2
  %9 = load ptr, ptr %4, align 8, !tbaa !121
  %10 = icmp ne ptr %9, null
  br i1 %10, label %12, label %11

11:                                               ; preds = %8, %2
  store i32 6, ptr %5, align 4, !tbaa !31
  br label %16

12:                                               ; preds = %8
  %13 = load ptr, ptr %3, align 8, !tbaa !34
  %14 = load ptr, ptr %4, align 8, !tbaa !121
  %15 = call i32 @FT_Outline_Decompose(ptr noundef %13, ptr noundef @sdf_decompose_funcs, ptr noundef %14)
  store i32 %15, ptr %5, align 4, !tbaa !31
  br label %16

16:                                               ; preds = %12, %11
  %17 = load i32, ptr %5, align 4, !tbaa !31
  call void @llvm.lifetime.end.p0(i64 4, ptr %5) #7
  ret i32 %17
}

; Function Attrs: nounwind uwtable
define internal i32 @sdf_shape_new(ptr noundef %0, ptr noundef %1) #0 {
  %3 = alloca ptr, align 8
  %4 = alloca ptr, align 8
  %5 = alloca i32, align 4
  %6 = alloca ptr, align 8
  store ptr %0, ptr %3, align 8, !tbaa !38
  store ptr %1, ptr %4, align 8, !tbaa !164
  call void @llvm.lifetime.start.p0(i64 4, ptr %5) #7
  store i32 0, ptr %5, align 4, !tbaa !31
  call void @llvm.lifetime.start.p0(i64 8, ptr %6) #7
  store ptr null, ptr %6, align 8, !tbaa !121
  %7 = load ptr, ptr %3, align 8, !tbaa !38
  %8 = icmp ne ptr %7, null
  br i1 %8, label %9, label %12

9:                                                ; preds = %2
  %10 = load ptr, ptr %4, align 8, !tbaa !164
  %11 = icmp ne ptr %10, null
  br i1 %11, label %13, label %12

12:                                               ; preds = %9, %2
  store i32 6, ptr %5, align 4, !tbaa !31
  br label %26

13:                                               ; preds = %9
  %14 = load ptr, ptr %3, align 8, !tbaa !38
  %15 = call ptr @ft_mem_qalloc(ptr noundef %14, i64 noundef 16, ptr noundef %5)
  store ptr %15, ptr %6, align 8, !tbaa !121
  %16 = load i32, ptr %5, align 4, !tbaa !31
  %17 = icmp ne i32 %16, 0
  br i1 %17, label %25, label %18

18:                                               ; preds = %13
  %19 = load ptr, ptr %6, align 8, !tbaa !121
  call void @llvm.memcpy.p0.p0.i64(ptr align 8 %19, ptr align 8 @null_shape, i64 16, i1 false), !tbaa.struct !166
  %20 = load ptr, ptr %3, align 8, !tbaa !38
  %21 = load ptr, ptr %6, align 8, !tbaa !121
  %22 = getelementptr inbounds nuw %struct.SDF_Shape_, ptr %21, i32 0, i32 0
  store ptr %20, ptr %22, align 8, !tbaa !169
  %23 = load ptr, ptr %6, align 8, !tbaa !121
  %24 = load ptr, ptr %4, align 8, !tbaa !164
  store ptr %23, ptr %24, align 8, !tbaa !121
  br label %25

25:                                               ; preds = %18, %13
  br label %26

26:                                               ; preds = %25, %12
  %27 = load i32, ptr %5, align 4, !tbaa !31
  call void @llvm.lifetime.end.p0(i64 8, ptr %6) #7
  call void @llvm.lifetime.end.p0(i64 4, ptr %5) #7
  ret i32 %27
}

; Function Attrs: nounwind uwtable
define internal i32 @sdf_raster_render(ptr noundef %0, ptr noundef %1) #0 {
  %3 = alloca ptr, align 8
  %4 = alloca ptr, align 8
  %5 = alloca i32, align 4
  %6 = alloca ptr, align 8
  %7 = alloca ptr, align 8
  %8 = alloca ptr, align 8
  %9 = alloca ptr, align 8
  %10 = alloca ptr, align 8
  %11 = alloca %struct.SDF_Params_, align 4
  %12 = alloca { i64, i32 }, align 4
  %13 = alloca { i64, i32 }, align 4
  store ptr %0, ptr %3, align 8, !tbaa !104
  store ptr %1, ptr %4, align 8, !tbaa !105
  call void @llvm.lifetime.start.p0(i64 4, ptr %5) #7
  store i32 0, ptr %5, align 4, !tbaa !31
  call void @llvm.lifetime.start.p0(i64 8, ptr %6) #7
  %14 = load ptr, ptr %3, align 8, !tbaa !104
  store ptr %14, ptr %6, align 8, !tbaa !117
  call void @llvm.lifetime.start.p0(i64 8, ptr %7) #7
  store ptr null, ptr %7, align 8, !tbaa !34
  call void @llvm.lifetime.start.p0(i64 8, ptr %8) #7
  %15 = load ptr, ptr %4, align 8, !tbaa !105
  store ptr %15, ptr %8, align 8, !tbaa !107
  call void @llvm.lifetime.start.p0(i64 8, ptr %9) #7
  store ptr null, ptr %9, align 8, !tbaa !38
  call void @llvm.lifetime.start.p0(i64 8, ptr %10) #7
  store ptr null, ptr %10, align 8, !tbaa !121
  call void @llvm.lifetime.start.p0(i64 12, ptr %11) #7
  %16 = load ptr, ptr %6, align 8, !tbaa !117
  %17 = icmp ne ptr %16, null
  br i1 %17, label %18, label %21

18:                                               ; preds = %2
  %19 = load ptr, ptr %8, align 8, !tbaa !107
  %20 = icmp ne ptr %19, null
  br i1 %20, label %22, label %21

21:                                               ; preds = %18, %2
  store i32 6, ptr %5, align 4, !tbaa !31
  br label %176

22:                                               ; preds = %18
  %23 = load ptr, ptr %8, align 8, !tbaa !107
  %24 = getelementptr inbounds nuw %struct.SDF_Raster_Params_, ptr %23, i32 0, i32 0
  %25 = getelementptr inbounds nuw %struct.FT_Raster_Params_, ptr %24, i32 0, i32 1
  %26 = load ptr, ptr %25, align 8, !tbaa !73
  store ptr %26, ptr %7, align 8, !tbaa !34
  %27 = load ptr, ptr %7, align 8, !tbaa !34
  %28 = icmp ne ptr %27, null
  br i1 %28, label %30, label %29

29:                                               ; preds = %22
  store i32 20, ptr %5, align 4, !tbaa !31
  br label %176

30:                                               ; preds = %22
  %31 = load ptr, ptr %7, align 8, !tbaa !34
  %32 = getelementptr inbounds nuw %struct.FT_Outline_, ptr %31, i32 0, i32 1
  %33 = load i16, ptr %32, align 2, !tbaa !123
  %34 = zext i16 %33 to i32
  %35 = icmp eq i32 %34, 0
  br i1 %35, label %42, label %36

36:                                               ; preds = %30
  %37 = load ptr, ptr %7, align 8, !tbaa !34
  %38 = getelementptr inbounds nuw %struct.FT_Outline_, ptr %37, i32 0, i32 0
  %39 = load i16, ptr %38, align 8, !tbaa !124
  %40 = zext i16 %39 to i32
  %41 = icmp eq i32 %40, 0
  br i1 %41, label %42, label %43

42:                                               ; preds = %36, %30
  br label %176

43:                                               ; preds = %36
  %44 = load ptr, ptr %7, align 8, !tbaa !34
  %45 = getelementptr inbounds nuw %struct.FT_Outline_, ptr %44, i32 0, i32 4
  %46 = load ptr, ptr %45, align 8, !tbaa !125
  %47 = icmp ne ptr %46, null
  br i1 %47, label %48, label %53

48:                                               ; preds = %43
  %49 = load ptr, ptr %7, align 8, !tbaa !34
  %50 = getelementptr inbounds nuw %struct.FT_Outline_, ptr %49, i32 0, i32 2
  %51 = load ptr, ptr %50, align 8, !tbaa !126
  %52 = icmp ne ptr %51, null
  br i1 %52, label %54, label %53

53:                                               ; preds = %48, %43
  store i32 20, ptr %5, align 4, !tbaa !31
  br label %176

54:                                               ; preds = %48
  %55 = load ptr, ptr %8, align 8, !tbaa !107
  %56 = getelementptr inbounds nuw %struct.SDF_Raster_Params_, ptr %55, i32 0, i32 1
  %57 = load i32, ptr %56, align 8, !tbaa !75
  %58 = icmp ugt i32 %57, 32
  br i1 %58, label %64, label %59

59:                                               ; preds = %54
  %60 = load ptr, ptr %8, align 8, !tbaa !107
  %61 = getelementptr inbounds nuw %struct.SDF_Raster_Params_, ptr %60, i32 0, i32 1
  %62 = load i32, ptr %61, align 8, !tbaa !75
  %63 = icmp ult i32 %62, 2
  br i1 %63, label %64, label %80

64:                                               ; preds = %59, %54
  br label %65

65:                                               ; preds = %64
  br label %66

66:                                               ; preds = %65
  br label %67

67:                                               ; preds = %66
  br label %68

68:                                               ; preds = %67
  br label %69

69:                                               ; preds = %68
  br label %70

70:                                               ; preds = %69
  br label %71

71:                                               ; preds = %70
  br label %72

72:                                               ; preds = %71
  br label %73

73:                                               ; preds = %72
  br label %74

74:                                               ; preds = %73
  br label %75

75:                                               ; preds = %74
  br label %76

76:                                               ; preds = %75
  br label %77

77:                                               ; preds = %76
  br label %78

78:                                               ; preds = %77
  br label %79

79:                                               ; preds = %78
  store i32 6, ptr %5, align 4, !tbaa !31
  br label %176

80:                                               ; preds = %59
  %81 = load ptr, ptr %6, align 8, !tbaa !117
  %82 = getelementptr inbounds nuw %struct.SDF_TRaster_, ptr %81, i32 0, i32 0
  %83 = load ptr, ptr %82, align 8, !tbaa !119
  store ptr %83, ptr %9, align 8, !tbaa !38
  %84 = load ptr, ptr %9, align 8, !tbaa !38
  %85 = icmp ne ptr %84, null
  br i1 %85, label %93, label %86

86:                                               ; preds = %80
  br label %87

87:                                               ; preds = %86
  br label %88

88:                                               ; preds = %87
  br label %89

89:                                               ; preds = %88
  br label %90

90:                                               ; preds = %89
  br label %91

91:                                               ; preds = %90
  br label %92

92:                                               ; preds = %91
  store i32 32, ptr %5, align 4, !tbaa !31
  br label %176

93:                                               ; preds = %80
  %94 = load ptr, ptr %7, align 8, !tbaa !34
  %95 = call i32 @FT_Outline_Get_Orientation(ptr noundef %94)
  %96 = getelementptr inbounds nuw %struct.SDF_Params_, ptr %11, i32 0, i32 0
  store i32 %95, ptr %96, align 4, !tbaa !127
  %97 = load ptr, ptr %8, align 8, !tbaa !107
  %98 = getelementptr inbounds nuw %struct.SDF_Raster_Params_, ptr %97, i32 0, i32 2
  %99 = load i8, ptr %98, align 4, !tbaa !76
  %100 = getelementptr inbounds nuw %struct.SDF_Params_, ptr %11, i32 0, i32 1
  store i8 %99, ptr %100, align 4, !tbaa !129
  %101 = load ptr, ptr %8, align 8, !tbaa !107
  %102 = getelementptr inbounds nuw %struct.SDF_Raster_Params_, ptr %101, i32 0, i32 3
  %103 = load i8, ptr %102, align 1, !tbaa !77
  %104 = getelementptr inbounds nuw %struct.SDF_Params_, ptr %11, i32 0, i32 2
  store i8 %103, ptr %104, align 1, !tbaa !130
  %105 = getelementptr inbounds nuw %struct.SDF_Params_, ptr %11, i32 0, i32 3
  store i32 0, ptr %105, align 4, !tbaa !131
  br label %106

106:                                              ; preds = %93
  %107 = load ptr, ptr %9, align 8, !tbaa !38
  %108 = call i32 @sdf_shape_new(ptr noundef %107, ptr noundef %10)
  store i32 %108, ptr %5, align 4, !tbaa !31
  %109 = load i32, ptr %5, align 4, !tbaa !31
  %110 = icmp ne i32 %109, 0
  br i1 %110, label %111, label %112

111:                                              ; preds = %106
  br label %176

112:                                              ; preds = %106
  br label %113

113:                                              ; preds = %112
  br label %114

114:                                              ; preds = %113
  br label %115

115:                                              ; preds = %114
  %116 = load ptr, ptr %7, align 8, !tbaa !34
  %117 = load ptr, ptr %10, align 8, !tbaa !121
  %118 = call i32 @sdf_outline_decompose(ptr noundef %116, ptr noundef %117)
  store i32 %118, ptr %5, align 4, !tbaa !31
  %119 = load i32, ptr %5, align 4, !tbaa !31
  %120 = icmp ne i32 %119, 0
  br i1 %120, label %121, label %122

121:                                              ; preds = %115
  br label %176

122:                                              ; preds = %115
  br label %123

123:                                              ; preds = %122
  br label %124

124:                                              ; preds = %123
  %125 = load ptr, ptr %8, align 8, !tbaa !107
  %126 = getelementptr inbounds nuw %struct.SDF_Raster_Params_, ptr %125, i32 0, i32 4
  %127 = load i8, ptr %126, align 2, !tbaa !78
  %128 = icmp ne i8 %127, 0
  br i1 %128, label %129, label %150

129:                                              ; preds = %124
  br label %130

130:                                              ; preds = %129
  %131 = load ptr, ptr %10, align 8, !tbaa !121
  %132 = load ptr, ptr %8, align 8, !tbaa !107
  %133 = getelementptr inbounds nuw %struct.SDF_Raster_Params_, ptr %132, i32 0, i32 1
  %134 = load i32, ptr %133, align 8, !tbaa !75
  %135 = load ptr, ptr %8, align 8, !tbaa !107
  %136 = getelementptr inbounds nuw %struct.SDF_Raster_Params_, ptr %135, i32 0, i32 0
  %137 = getelementptr inbounds nuw %struct.FT_Raster_Params_, ptr %136, i32 0, i32 0
  %138 = load ptr, ptr %137, align 8, !tbaa !69
  call void @llvm.memcpy.p0.p0.i64(ptr align 4 %12, ptr align 4 %11, i64 12, i1 false)
  %139 = getelementptr inbounds nuw { i64, i32 }, ptr %12, i32 0, i32 0
  %140 = load i64, ptr %139, align 4
  %141 = getelementptr inbounds nuw { i64, i32 }, ptr %12, i32 0, i32 1
  %142 = load i32, ptr %141, align 4
  %143 = call i32 @sdf_generate_with_overlaps(i64 %140, i32 %142, ptr noundef %131, i32 noundef %134, ptr noundef %138)
  store i32 %143, ptr %5, align 4, !tbaa !31
  %144 = load i32, ptr %5, align 4, !tbaa !31
  %145 = icmp ne i32 %144, 0
  br i1 %145, label %146, label %147

146:                                              ; preds = %130
  br label %176

147:                                              ; preds = %130
  br label %148

148:                                              ; preds = %147
  br label %149

149:                                              ; preds = %148
  br label %171

150:                                              ; preds = %124
  br label %151

151:                                              ; preds = %150
  %152 = load ptr, ptr %10, align 8, !tbaa !121
  %153 = load ptr, ptr %8, align 8, !tbaa !107
  %154 = getelementptr inbounds nuw %struct.SDF_Raster_Params_, ptr %153, i32 0, i32 1
  %155 = load i32, ptr %154, align 8, !tbaa !75
  %156 = load ptr, ptr %8, align 8, !tbaa !107
  %157 = getelementptr inbounds nuw %struct.SDF_Raster_Params_, ptr %156, i32 0, i32 0
  %158 = getelementptr inbounds nuw %struct.FT_Raster_Params_, ptr %157, i32 0, i32 0
  %159 = load ptr, ptr %158, align 8, !tbaa !69
  call void @llvm.memcpy.p0.p0.i64(ptr align 4 %13, ptr align 4 %11, i64 12, i1 false)
  %160 = getelementptr inbounds nuw { i64, i32 }, ptr %13, i32 0, i32 0
  %161 = load i64, ptr %160, align 4
  %162 = getelementptr inbounds nuw { i64, i32 }, ptr %13, i32 0, i32 1
  %163 = load i32, ptr %162, align 4
  %164 = call i32 @sdf_generate_subdivision(i64 %161, i32 %163, ptr noundef %152, i32 noundef %155, ptr noundef %159)
  store i32 %164, ptr %5, align 4, !tbaa !31
  %165 = load i32, ptr %5, align 4, !tbaa !31
  %166 = icmp ne i32 %165, 0
  br i1 %166, label %167, label %168

167:                                              ; preds = %151
  br label %176

168:                                              ; preds = %151
  br label %169

169:                                              ; preds = %168
  br label %170

170:                                              ; preds = %169
  br label %171

171:                                              ; preds = %170, %149
  %172 = load ptr, ptr %10, align 8, !tbaa !121
  %173 = icmp ne ptr %172, null
  br i1 %173, label %174, label %175

174:                                              ; preds = %171
  call void @sdf_shape_done(ptr noundef %10)
  br label %175

175:                                              ; preds = %174, %171
  br label %176

176:                                              ; preds = %175, %167, %146, %121, %111, %92, %79, %53, %42, %29, %21
  %177 = load i32, ptr %5, align 4, !tbaa !31
  call void @llvm.lifetime.end.p0(i64 12, ptr %11) #7
  call void @llvm.lifetime.end.p0(i64 8, ptr %10) #7
  call void @llvm.lifetime.end.p0(i64 8, ptr %9) #7
  call void @llvm.lifetime.end.p0(i64 8, ptr %8) #7
  call void @llvm.lifetime.end.p0(i64 8, ptr %7) #7
  call void @llvm.lifetime.end.p0(i64 8, ptr %6) #7
  call void @llvm.lifetime.end.p0(i64 4, ptr %5) #7
  ret i32 %177
}