; Function Attrs: nounwind uwtable
define internal i32 @sdf_raster_render(ptr noundef readonly %0, ptr noundef readonly %1) #2 {
  %3 = alloca i32, align 4
  %4 = alloca ptr, align 8
  call void @llvm.lifetime.start.p0(i64 8, ptr nonnull %4) #11
  %5 = icmp ne ptr %0, null
  %6 = icmp ne ptr %1, null
  %or.cond = and i1 %5, %6
  br i1 %or.cond, label %7, label %sdf_outline_decompose.exit.thread

7:                                                ; preds = %2
  %8 = getelementptr inbounds nuw i8, ptr %1, i64 8
  %9 = load ptr, ptr %8, align 8, !tbaa !59
  %.not = icmp eq ptr %9, null
  br i1 %.not, label %sdf_outline_decompose.exit.thread, label %10

10:                                               ; preds = %7
  %11 = getelementptr inbounds nuw i8, ptr %9, i64 2
  %12 = load i16, ptr %11, align 2, !tbaa !95
  %13 = icmp eq i16 %12, 0
  br i1 %13, label %sdf_outline_decompose.exit.thread, label %14

14:                                               ; preds = %10
  %15 = load i16, ptr %9, align 8, !tbaa !96
  %16 = icmp eq i16 %15, 0
  br i1 %16, label %sdf_outline_decompose.exit.thread, label %17

17:                                               ; preds = %14
  %18 = getelementptr inbounds nuw i8, ptr %9, i64 24
  %19 = load ptr, ptr %18, align 8, !tbaa !97
  %.not45 = icmp eq ptr %19, null
  br i1 %.not45, label %sdf_outline_decompose.exit.thread, label %20

20:                                               ; preds = %17
  %21 = getelementptr inbounds nuw i8, ptr %9, i64 8
  %22 = load ptr, ptr %21, align 8, !tbaa !98
  %.not46 = icmp eq ptr %22, null
  br i1 %.not46, label %sdf_outline_decompose.exit.thread, label %23

23:                                               ; preds = %20
  %24 = getelementptr inbounds nuw i8, ptr %1, i64 96
  %25 = load i32, ptr %24, align 8, !tbaa !61
  %26 = add i32 %25, -33
  %or.cond54 = icmp ult i32 %26, -31
  br i1 %or.cond54, label %sdf_outline_decompose.exit.thread, label %27

27:                                               ; preds = %23
  %28 = load ptr, ptr %0, align 8, !tbaa !91
  %.not47 = icmp eq ptr %28, null
  br i1 %.not47, label %sdf_outline_decompose.exit.thread, label %29

29:                                               ; preds = %27
  %30 = tail call i32 @FT_Outline_Get_Orientation(ptr noundef nonnull %9) #11
  %.sroa.04.0.insert.ext = zext i32 %30 to i64
  %31 = getelementptr inbounds nuw i8, ptr %1, i64 100
  %32 = load i8, ptr %31, align 4, !tbaa !62
  %.sroa.04.4.insert.ext = zext i8 %32 to i64
  %.sroa.04.4.insert.shift = shl nuw nsw i64 %.sroa.04.4.insert.ext, 32
  %.sroa.04.4.insert.insert = or disjoint i64 %.sroa.04.4.insert.shift, %.sroa.04.0.insert.ext
  %33 = getelementptr inbounds nuw i8, ptr %1, i64 101
  %34 = load i8, ptr %33, align 1, !tbaa !63
  %.sroa.04.5.insert.ext = zext i8 %34 to i64
  %.sroa.04.5.insert.shift = shl nuw nsw i64 %.sroa.04.5.insert.ext, 40
  %.sroa.04.5.insert.insert = or disjoint i64 %.sroa.04.4.insert.insert, %.sroa.04.5.insert.shift
  call void @llvm.lifetime.start.p0(i64 4, ptr nonnull %3) #11
  store i32 0, ptr %3, align 4, !tbaa !21
  %35 = call ptr @ft_mem_qalloc(ptr noundef nonnull %28, i64 noundef 16, ptr noundef nonnull %3) #11
  %36 = load i32, ptr %3, align 4, !tbaa !21
  %.not.i = icmp eq i32 %36, 0
  br i1 %.not.i, label %sdf_outline_decompose.exit, label %sdf_shape_new.exit

sdf_shape_new.exit:                               ; preds = %29
  call void @llvm.lifetime.end.p0(i64 4, ptr nonnull %3) #11
  br label %sdf_outline_decompose.exit.thread

sdf_outline_decompose.exit:                       ; preds = %29
  %37 = getelementptr inbounds nuw i8, ptr %35, i64 8
  store i64 0, ptr %37, align 8
  store ptr %28, ptr %35, align 8, !tbaa !99
  store ptr %35, ptr %4, align 8, !tbaa !102
  call void @llvm.lifetime.end.p0(i64 4, ptr nonnull %3) #11
  %38 = call i32 @FT_Outline_Decompose(ptr noundef nonnull %9, ptr noundef nonnull @sdf_decompose_funcs, ptr noundef nonnull %35) #11
  %.not49 = icmp eq i32 %38, 0
  br i1 %.not49, label %39, label %sdf_outline_decompose.exit.thread

39:                                               ; preds = %sdf_outline_decompose.exit
  %40 = getelementptr inbounds nuw i8, ptr %1, i64 102
  %41 = load i8, ptr %40, align 2, !tbaa !64
  %.not50 = icmp eq i8 %41, 0
  %42 = load i32, ptr %24, align 8, !tbaa !61
  %43 = load ptr, ptr %1, align 8, !tbaa !54
  br i1 %.not50, label %46, label %44

44:                                               ; preds = %39
  %45 = call fastcc i32 @sdf_generate_with_overlaps(i64 %.sroa.04.5.insert.insert, ptr noundef nonnull %35, i32 noundef %42, ptr noundef %43)
  %.not52 = icmp eq i32 %45, 0
  br i1 %.not52, label %48, label %sdf_outline_decompose.exit.thread

46:                                               ; preds = %39
  %47 = call fastcc i32 @sdf_generate_subdivision(i64 %.sroa.04.5.insert.insert, i32 0, ptr noundef nonnull %35, i32 noundef %42, ptr noundef %43)
  %.not51 = icmp eq i32 %47, 0
  br i1 %.not51, label %48, label %sdf_outline_decompose.exit.thread

48:                                               ; preds = %44, %46
  call fastcc void @sdf_shape_done(ptr noundef %4)
  br label %sdf_outline_decompose.exit.thread

sdf_outline_decompose.exit.thread:                ; preds = %sdf_shape_new.exit, %27, %23, %17, %20, %7, %2, %48, %46, %44, %sdf_outline_decompose.exit, %10, %14
  %.0 = phi i32 [ 0, %10 ], [ 0, %14 ], [ %36, %sdf_shape_new.exit ], [ %38, %sdf_outline_decompose.exit ], [ %45, %44 ], [ 0, %48 ], [ %47, %46 ], [ 6, %2 ], [ 20, %7 ], [ 20, %20 ], [ 20, %17 ], [ 6, %23 ], [ 32, %27 ]
  call void @llvm.lifetime.end.p0(i64 8, ptr nonnull %4) #11
  ret i32 %.0
}